; Function Attrs: nounwind uwtable
define internal i32 @prologInitProcessor(ptr noundef %0, ptr noundef %1, ptr noundef %2, ptr noundef writeonly captures(none) %3) #0 {
  %5 = alloca ptr, align 8
  %6 = tail call fastcc i32 @initializeEncoding(ptr noundef %0)
  %.not = icmp eq i32 %6, 0
  br i1 %.not, label %7, label %19

7:                                                ; preds = %4
  %8 = getelementptr inbounds nuw i8, ptr %0, i64 544
  store ptr @prologProcessor, ptr %8, align 8, !tbaa !100
  call void @llvm.lifetime.start.p0(i64 8, ptr nonnull %5) #25
  store ptr %1, ptr %5, align 8, !tbaa !117
  %9 = getelementptr inbounds nuw i8, ptr %0, i64 304
  %10 = load ptr, ptr %9, align 8, !tbaa !206
  %11 = load ptr, ptr %10, align 8, !tbaa !92
  %12 = call i32 %11(ptr noundef nonnull %10, ptr noundef %1, ptr noundef %2, ptr noundef nonnull %5) #25
  %13 = load ptr, ptr %9, align 8, !tbaa !206
  %14 = load ptr, ptr %5, align 8, !tbaa !117
  %15 = getelementptr inbounds nuw i8, ptr %0, i64 924
  %16 = load i8, ptr %15, align 4, !tbaa !202
  %.not.i = icmp eq i8 %16, 0
  %17 = zext i1 %.not.i to i8
  %18 = call fastcc i32 @doProlog(ptr noundef %0, ptr noundef %13, ptr noundef %1, ptr noundef %2, i32 noundef %12, ptr noundef %14, ptr noundef %3, i8 noundef zeroext %17, i8 noundef zeroext 1, i32 noundef 0)
  call void @llvm.lifetime.end.p0(i64 8, ptr nonnull %5) #25
  br label %19

19:                                               ; preds = %4, %7
  %.0 = phi i32 [ %18, %7 ], [ %6, %4 ]
  ret i32 %.0
}